; Function Attrs: nounwind uwtable
define dso_local ptr @get_sortgroupref_clause(i32 noundef %0, ptr noundef readonly captures(address_is_null) %1) local_unnamed_addr #0 {
  %.not = icmp eq ptr %1, null
  br i1 %.not, label %._crit_edge, label %.lr.ph

.lr.ph:                                           ; preds = %2
  %3 = getelementptr inbounds nuw i8, ptr %1, i64 4
  %4 = load i32, ptr %3, align 4
  %5 = icmp sgt i32 %4, 0
  br i1 %5, label %.lr.ph27, label %._crit_edge

.lr.ph27:                                         ; preds = %.lr.ph
  %6 = getelementptr inbounds nuw i8, ptr %1, i64 16
  %7 = load ptr, ptr %6, align 8
  %wide.trip.count = zext nneg i32 %4 to i64
  br label %9

8:                                                ; preds = %9
  %indvars.iv.next = add nuw nsw i64 %indvars.iv, 1
  %exitcond.not = icmp eq i64 %indvars.iv.next, %wide.trip.count
  br i1 %exitcond.not, label %._crit_edge, label %9

9:                                                ; preds = %.lr.ph27, %8
  %indvars.iv = phi i64 [ 0, %.lr.ph27 ], [ %indvars.iv.next, %8 ]
  %10 = getelementptr inbounds nuw %union.ListCell, ptr %7, i64 %indvars.iv
  %11 = load ptr, ptr %10, align 8
  %12 = getelementptr inbounds nuw i8, ptr %11, i64 4
  %13 = load i32, ptr %12, align 4
  %.not17 = icmp eq i32 %13, %0
  br i1 %.not17, label %.split, label %8

._crit_edge:                                      ; preds = %8, %.lr.ph, %2
  %14 = tail call zeroext i1 @errstart_cold(i32 noundef 21, ptr noundef null) #11
  tail call void @llvm.assume(i1 %14)
  %15 = tail call i32 (ptr, ...) @errmsg_internal(ptr noundef nonnull @.str.2) #10
  tail call void @errfinish(ptr noundef nonnull @.str.1, i32 noundef 434, ptr noundef nonnull @__func__.get_sortgroupref_clause) #10
  unreachable

.split:                                           ; preds = %9
  ret ptr %11
}